target datalayout = "e-m:e-p270:32:32-p271:32:32-p272:64:64-i64:64-i128:128-f80:128-n8:16:32:64-S128"
target triple = "x86_64-pc-linux-gnu"

%"class.std::basic_string_view" = type { i64, ptr }

@.str = private unnamed_addr constant [65 x i8] c"abcdefghijklmnopqrstuvwxyzABCDEFGHIJKLMNOPQRSTUVWXYZ01234567890_\00", align 1

; Function Attrs: mustprogress nounwind uwtable
define linkonce_odr dso_local noundef ptr @_ZNSt11char_traitsIcE4findEPKcmRS1_(ptr noundef %0, i64 noundef %1, ptr noundef nonnull align 1 dereferenceable(1) %2) #5 comdat align 2 {
  %4 = alloca ptr, align 8
  %5 = alloca ptr, align 8
  %6 = alloca i64, align 8
  %7 = alloca ptr, align 8
  store ptr %0, ptr %5, align 8
  store i64 %1, ptr %6, align 8
  store ptr %2, ptr %7, align 8
  %8 = load i64, ptr %6, align 8
  %9 = icmp eq i64 %8, 0
  br i1 %9, label %10, label %11

10:                                               ; preds = %3
  store ptr null, ptr %4, align 8
  br label %18

11:                                               ; preds = %3
  %12 = load ptr, ptr %5, align 8
  %13 = load ptr, ptr %7, align 8
  %14 = load i8, ptr %13, align 1
  %15 = sext i8 %14 to i32
  %16 = load i64, ptr %6, align 8
  %17 = call ptr @memchr(ptr noundef %12, i32 noundef %15, i64 noundef %16) #12
  store ptr %17, ptr %4, align 8
  br label %18

18:                                               ; preds = %11, %10
  %19 = load ptr, ptr %4, align 8
  ret ptr %19
}

; Function Attrs: noreturn nounwind uwtable
define linkonce_odr hidden void @__clang_call_terminate(ptr noundef %0) #7 comdat {
  %2 = call ptr @__cxa_begin_catch(ptr %0) #12
  call void @_ZSt9terminatev() #13
  unreachable
}

; Function Attrs: mustprogress nounwind uwtable
define linkonce_odr dso_local noundef i64 @_ZNKSt17basic_string_viewIcSt11char_traitsIcEE17find_first_not_ofEPKcmm(ptr noundef nonnull align 8 dereferenceable(16) %0, ptr noundef %1, i64 noundef %2, i64 noundef %3) #5 comdat align 2 {
  %5 = alloca i64, align 8
  %6 = alloca ptr, align 8
  %7 = alloca ptr, align 8
  %8 = alloca i64, align 8
  %9 = alloca i64, align 8
  store ptr %0, ptr %6, align 8
  store ptr %1, ptr %7, align 8
  store i64 %2, ptr %8, align 8
  store i64 %3, ptr %9, align 8
  %10 = load ptr, ptr %6, align 8
  br label %11

11:                                               ; preds = %28, %4
  %12 = load i64, ptr %8, align 8
  %13 = getelementptr inbounds %"class.std::basic_string_view", ptr %10, i32 0, i32 0
  %14 = load i64, ptr %13, align 8
  %15 = icmp ult i64 %12, %14
  br i1 %15, label %16, label %31

16:                                               ; preds = %11
  %17 = load ptr, ptr %7, align 8
  %18 = load i64, ptr %9, align 8
  %19 = getelementptr inbounds %"class.std::basic_string_view", ptr %10, i32 0, i32 1
  %20 = load ptr, ptr %19, align 8
  %21 = load i64, ptr %8, align 8
  %22 = getelementptr inbounds i8, ptr %20, i64 %21
  %23 = call noundef ptr @_ZNSt11char_traitsIcE4findEPKcmRS1_(ptr noundef %17, i64 noundef %18, ptr noundef nonnull align 1 dereferenceable(1) %22)
  %24 = icmp ne ptr %23, null
  br i1 %24, label %27, label %25

25:                                               ; preds = %16
  %26 = load i64, ptr %8, align 8
  store i64 %26, ptr %5, align 8
  br label %32

27:                                               ; preds = %16
  br label %28

28:                                               ; preds = %27
  %29 = load i64, ptr %8, align 8
  %30 = add i64 %29, 1
  store i64 %30, ptr %8, align 8
  br label %11, !llvm.loop !17

31:                                               ; preds = %11
  store i64 -1, ptr %5, align 8
  br label %32

32:                                               ; preds = %31, %25
  %33 = load i64, ptr %5, align 8
  ret i64 %33
}

; Function Attrs: mustprogress nounwind uwtable
define linkonce_odr dso_local noundef i64 @_ZNSt11char_traitsIcE6lengthEPKc(ptr noundef %0) #5 comdat align 2 {
  %2 = alloca ptr, align 8
  store ptr %0, ptr %2, align 8
  %3 = load ptr, ptr %2, align 8
  %4 = call i64 @strlen(ptr noundef %3) #12
  ret i64 %4
}

; Function Attrs: mustprogress nounwind uwtable
define linkonce_odr dso_local noundef i64 @_ZNKSt17basic_string_viewIcSt11char_traitsIcEE17find_first_not_ofEPKcm(ptr noundef nonnull align 8 dereferenceable(16) %0, ptr noundef nonnull %1, i64 noundef %2) #5 comdat align 2 personality ptr @__gxx_personality_v0 {
  %4 = alloca ptr, align 8
  %5 = alloca ptr, align 8
  %6 = alloca i64, align 8
  store ptr %0, ptr %4, align 8
  store ptr %1, ptr %5, align 8
  store i64 %2, ptr %6, align 8
  %7 = load ptr, ptr %4, align 8
  %8 = load ptr, ptr %5, align 8
  %9 = load i64, ptr %6, align 8
  %10 = load ptr, ptr %5, align 8
  %11 = invoke noundef i64 @_ZNSt11char_traitsIcE6lengthEPKc(ptr noundef %10)
          to label %12 unwind label %14

12:                                               ; preds = %3
  %13 = call noundef i64 @_ZNKSt17basic_string_viewIcSt11char_traitsIcEE17find_first_not_ofEPKcmm(ptr noundef nonnull align 8 dereferenceable(16) %7, ptr noundef %8, i64 noundef %9, i64 noundef %11) #12
  ret i64 %13

14:                                               ; preds = %3
  %15 = landingpad { ptr, i32 }
          catch ptr null
  %16 = extractvalue { ptr, i32 } %15, 0
  call void @__clang_call_terminate(ptr %16) #13
  unreachable
}

; Function Attrs: mustprogress nounwind uwtable
define dso_local noundef zeroext i1 @_ZN4Luau12isIdentifierESt17basic_string_viewIcSt11char_traitsIcEE(i64 %0, ptr %1) #5 {
  %3 = alloca %"class.std::basic_string_view", align 8
  %4 = getelementptr inbounds { i64, ptr }, ptr %3, i32 0, i32 0
  store i64 %0, ptr %4, align 8
  %5 = getelementptr inbounds { i64, ptr }, ptr %3, i32 0, i32 1
  store ptr %1, ptr %5, align 8
  %6 = call noundef i64 @_ZNKSt17basic_string_viewIcSt11char_traitsIcEE17find_first_not_ofEPKcm(ptr noundef nonnull align 8 dereferenceable(16) %3, ptr noundef @.str, i64 noundef 0) #12
  %7 = icmp eq i64 %6, -1
  ret i1 %7
}