; Function Attrs: mustprogress nofree nounwind willreturn memory(argmem: read) uwtable
define dso_local noundef zeroext i1 @_ZN4Luau12isIdentifierESt17basic_string_viewIcSt11char_traitsIcEE(i64 %0, ptr nocapture readonly %1) local_unnamed_addr #6 personality ptr @__gxx_personality_v0 {
  %.not = icmp eq i64 %0, 0
  br i1 %.not, label %_ZNKSt17basic_string_viewIcSt11char_traitsIcEE17find_first_not_ofEPKcm.exit, label %_ZNSt11char_traitsIcE4findEPKcmRS1_.exit.i.i

_ZNSt11char_traitsIcE4findEPKcmRS1_.exit.i.i:     ; preds = %2, %7
  %.0710.i.i = phi i64 [ %8, %7 ], [ 0, %2 ]
  %3 = getelementptr inbounds i8, ptr %1, i64 %.0710.i.i
  %4 = load i8, ptr %3, align 1
  %5 = sext i8 %4 to i32
  %6 = tail call ptr @memchr(ptr noundef nonnull dereferenceable(1) @.str, i32 noundef %5, i64 noundef 64) #20
  %.not.i.i = icmp eq ptr %6, null
  br i1 %.not.i.i, label %_ZNKSt17basic_string_viewIcSt11char_traitsIcEE17find_first_not_ofEPKcm.exit.loopexit, label %7

7:                                                ; preds = %_ZNSt11char_traitsIcE4findEPKcmRS1_.exit.i.i
  %8 = add nuw i64 %.0710.i.i, 1
  %exitcond.not.i.i = icmp eq i64 %8, %0
  br i1 %exitcond.not.i.i, label %_ZNKSt17basic_string_viewIcSt11char_traitsIcEE17find_first_not_ofEPKcm.exit.loopexit, label %_ZNSt11char_traitsIcE4findEPKcmRS1_.exit.i.i, !llvm.loop !32

_ZNKSt17basic_string_viewIcSt11char_traitsIcEE17find_first_not_ofEPKcm.exit.loopexit: ; preds = %7, %_ZNSt11char_traitsIcE4findEPKcmRS1_.exit.i.i
  %.0.i.i.ph = phi i64 [ %.0710.i.i, %_ZNSt11char_traitsIcE4findEPKcmRS1_.exit.i.i ], [ -1, %7 ]
  %9 = icmp eq i64 %.0.i.i.ph, -1
  br label %_ZNKSt17basic_string_viewIcSt11char_traitsIcEE17find_first_not_ofEPKcm.exit

_ZNKSt17basic_string_viewIcSt11char_traitsIcEE17find_first_not_ofEPKcm.exit: ; preds = %_ZNKSt17basic_string_viewIcSt11char_traitsIcEE17find_first_not_ofEPKcm.exit.loopexit, %2
  %.0.i.i = phi i1 [ true, %2 ], [ %9, %_ZNKSt17basic_string_viewIcSt11char_traitsIcEE17find_first_not_ofEPKcm.exit.loopexit ]
  ret i1 %.0.i.i
}